; Function Attrs: mustprogress uwtable
define internal fastcc void @_ZN4pbrtL19getCategoryAndTitleERKNSt7__cxx1112basic_stringIcSt11char_traitsIcESaIcEEEPS5_S8_(ptr %.0.val, i64 %.8.val, ptr noundef nonnull %0, ptr noundef nonnull %1) unnamed_addr #5 personality ptr @__gxx_personality_v0 {
  %3 = alloca %"class.std::vector.14", align 8
  %4 = alloca i64, align 8
  %5 = alloca i32, align 4
  call void @llvm.lifetime.start.p0(i64 24, ptr nonnull %3) #27
  call void @_ZN4pbrt11SplitStringB5cxx11ESt17basic_string_viewIcSt11char_traitsIcEEc(ptr dead_on_unwind nonnull writable sret(%"class.std::vector.14") align 8 %3, i64 %.8.val, ptr %.0.val, i8 noundef signext 47)
  %6 = getelementptr inbounds nuw i8, ptr %3, i64 8
  %7 = load ptr, ptr %6, align 8, !tbaa !75
  %8 = load ptr, ptr %3, align 8, !tbaa !77
  %9 = ptrtoint ptr %7 to i64
  %10 = ptrtoint ptr %8 to i64
  %11 = sub i64 %9, %10
  %12 = icmp eq i64 %11, 32
  br i1 %12, label %_ZNSt7__cxx1112basic_stringIcSt11char_traitsIcESaIcEEaSERKS4_.exit7.invoke, label %15

13:                                               ; preds = %_ZNSt7__cxx1112basic_stringIcSt11char_traitsIcESaIcEEaSERKS4_.exit7.invoke, %22
  %14 = landingpad { ptr, i32 }
          cleanup
  br label %44

15:                                               ; preds = %2
  %16 = ashr exact i64 %11, 5
  call void @llvm.lifetime.start.p0(i64 8, ptr nonnull %4) #27
  store i64 %16, ptr %4, align 8, !tbaa !91
  call void @llvm.lifetime.start.p0(i64 4, ptr nonnull %5) #27
  store i32 2, ptr %5, align 4, !tbaa !121
  %17 = icmp eq i64 %11, 64
  br i1 %17, label %22, label %18

18:                                               ; preds = %15
  invoke void @_ZN4pbrt8LogFatalIJRA13_KcRA2_S1_S3_RmS5_RiEEEvNS_8LogLevelEPS1_iS9_DpOT_(i32 noundef 2, ptr noundef nonnull @.str, i32 noundef 342, ptr noundef nonnull @.str.14, ptr noundef nonnull align 1 dereferenceable(13) @.str.51, ptr noundef nonnull align 1 dereferenceable(2) @.str.52, ptr noundef nonnull align 1 dereferenceable(13) @.str.51, ptr noundef nonnull align 8 dereferenceable(8) %4, ptr noundef nonnull align 1 dereferenceable(2) @.str.52, ptr noundef nonnull align 4 dereferenceable(4) %5) #28
          to label %19 unwind label %20

19:                                               ; preds = %18
  unreachable

20:                                               ; preds = %18
  %21 = landingpad { ptr, i32 }
          cleanup
  call void @llvm.lifetime.end.p0(i64 4, ptr nonnull %5) #27
  call void @llvm.lifetime.end.p0(i64 8, ptr nonnull %4) #27
  br label %44

22:                                               ; preds = %15
  call void @llvm.lifetime.end.p0(i64 4, ptr nonnull %5) #27
  call void @llvm.lifetime.end.p0(i64 8, ptr nonnull %4) #27
  invoke void @_ZNSt7__cxx1112basic_stringIcSt11char_traitsIcESaIcEE9_M_assignERKS4_(ptr noundef nonnull align 8 dereferenceable(32) %0, ptr noundef nonnull align 8 dereferenceable(32) %8)
          to label %_ZNSt7__cxx1112basic_stringIcSt11char_traitsIcESaIcEEaSERKS4_.exit7 unwind label %13

_ZNSt7__cxx1112basic_stringIcSt11char_traitsIcESaIcEEaSERKS4_.exit7: ; preds = %22
  %23 = load ptr, ptr %3, align 8, !tbaa !77
  %24 = getelementptr inbounds nuw i8, ptr %23, i64 32
  br label %_ZNSt7__cxx1112basic_stringIcSt11char_traitsIcESaIcEEaSERKS4_.exit7.invoke

_ZNSt7__cxx1112basic_stringIcSt11char_traitsIcESaIcEEaSERKS4_.exit7.invoke: ; preds = %2, %_ZNSt7__cxx1112basic_stringIcSt11char_traitsIcESaIcEEaSERKS4_.exit7
  %25 = phi ptr [ %24, %_ZNSt7__cxx1112basic_stringIcSt11char_traitsIcESaIcEEaSERKS4_.exit7 ], [ %8, %2 ]
  invoke void @_ZNSt7__cxx1112basic_stringIcSt11char_traitsIcESaIcEE9_M_assignERKS4_(ptr noundef nonnull align 8 dereferenceable(32) %1, ptr noundef nonnull align 8 dereferenceable(32) %25)
          to label %_ZNSt7__cxx1112basic_stringIcSt11char_traitsIcESaIcEEaSERKS4_.exit unwind label %13

_ZNSt7__cxx1112basic_stringIcSt11char_traitsIcESaIcEEaSERKS4_.exit: ; preds = %_ZNSt7__cxx1112basic_stringIcSt11char_traitsIcESaIcEEaSERKS4_.exit7.invoke
  %26 = load ptr, ptr %3, align 8, !tbaa !77
  %27 = load ptr, ptr %6, align 8, !tbaa !75
  %.not4.i.i.i.i = icmp eq ptr %26, %27
  br i1 %.not4.i.i.i.i, label %_ZSt8_DestroyIPNSt7__cxx1112basic_stringIcSt11char_traitsIcESaIcEEES5_EvT_S7_RSaIT0_E.exit.i, label %.lr.ph.i.i.i.i

.lr.ph.i.i.i.i:                                   ; preds = %_ZNSt7__cxx1112basic_stringIcSt11char_traitsIcESaIcEEaSERKS4_.exit, %_ZSt8_DestroyINSt7__cxx1112basic_stringIcSt11char_traitsIcESaIcEEEEvPT_.exit.i.i.i.i
  %.05.i.i.i.i = phi ptr [ %36, %_ZSt8_DestroyINSt7__cxx1112basic_stringIcSt11char_traitsIcESaIcEEEEvPT_.exit.i.i.i.i ], [ %26, %_ZNSt7__cxx1112basic_stringIcSt11char_traitsIcESaIcEEaSERKS4_.exit ]
  %28 = load ptr, ptr %.05.i.i.i.i, align 8, !tbaa !55
  %29 = getelementptr inbounds nuw i8, ptr %.05.i.i.i.i, i64 16
  %30 = icmp eq ptr %28, %29
  br i1 %30, label %_ZNKSt7__cxx1112basic_stringIcSt11char_traitsIcESaIcEE11_M_is_localEv.exit.thread.i.i.i.i.i.i.i, label %_ZNKSt7__cxx1112basic_stringIcSt11char_traitsIcESaIcEE11_M_is_localEv.exit.i.i.i.i.i.i.i

_ZNKSt7__cxx1112basic_stringIcSt11char_traitsIcESaIcEE11_M_is_localEv.exit.thread.i.i.i.i.i.i.i: ; preds = %.lr.ph.i.i.i.i
  %31 = getelementptr inbounds nuw i8, ptr %.05.i.i.i.i, i64 8
  %32 = load i64, ptr %31, align 8, !tbaa !51
  %33 = icmp ult i64 %32, 16
  call void @llvm.assume(i1 %33)
  br label %_ZSt8_DestroyINSt7__cxx1112basic_stringIcSt11char_traitsIcESaIcEEEEvPT_.exit.i.i.i.i

_ZNKSt7__cxx1112basic_stringIcSt11char_traitsIcESaIcEE11_M_is_localEv.exit.i.i.i.i.i.i.i: ; preds = %.lr.ph.i.i.i.i
  %34 = load i64, ptr %29, align 8, !tbaa !53
  %35 = add i64 %34, 1
  call void @_ZdlPvm(ptr noundef %28, i64 noundef %35) #29
  br label %_ZSt8_DestroyINSt7__cxx1112basic_stringIcSt11char_traitsIcESaIcEEEEvPT_.exit.i.i.i.i

_ZSt8_DestroyINSt7__cxx1112basic_stringIcSt11char_traitsIcESaIcEEEEvPT_.exit.i.i.i.i: ; preds = %_ZNKSt7__cxx1112basic_stringIcSt11char_traitsIcESaIcEE11_M_is_localEv.exit.i.i.i.i.i.i.i, %_ZNKSt7__cxx1112basic_stringIcSt11char_traitsIcESaIcEE11_M_is_localEv.exit.thread.i.i.i.i.i.i.i
  %36 = getelementptr inbounds nuw i8, ptr %.05.i.i.i.i, i64 32
  %.not.i.i.i.i = icmp eq ptr %36, %27
  br i1 %.not.i.i.i.i, label %_ZSt8_DestroyIPNSt7__cxx1112basic_stringIcSt11char_traitsIcESaIcEEES5_EvT_S7_RSaIT0_E.exitthread-pre-split.i, label %.lr.ph.i.i.i.i, !llvm.loop !78

_ZSt8_DestroyIPNSt7__cxx1112basic_stringIcSt11char_traitsIcESaIcEEES5_EvT_S7_RSaIT0_E.exitthread-pre-split.i: ; preds = %_ZSt8_DestroyINSt7__cxx1112basic_stringIcSt11char_traitsIcESaIcEEEEvPT_.exit.i.i.i.i
  %.pr.i = load ptr, ptr %3, align 8, !tbaa !77
  br label %_ZSt8_DestroyIPNSt7__cxx1112basic_stringIcSt11char_traitsIcESaIcEEES5_EvT_S7_RSaIT0_E.exit.i

_ZSt8_DestroyIPNSt7__cxx1112basic_stringIcSt11char_traitsIcESaIcEEES5_EvT_S7_RSaIT0_E.exit.i: ; preds = %_ZSt8_DestroyIPNSt7__cxx1112basic_stringIcSt11char_traitsIcESaIcEEES5_EvT_S7_RSaIT0_E.exitthread-pre-split.i, %_ZNSt7__cxx1112basic_stringIcSt11char_traitsIcESaIcEEaSERKS4_.exit
  %37 = phi ptr [ %.pr.i, %_ZSt8_DestroyIPNSt7__cxx1112basic_stringIcSt11char_traitsIcESaIcEEES5_EvT_S7_RSaIT0_E.exitthread-pre-split.i ], [ %26, %_ZNSt7__cxx1112basic_stringIcSt11char_traitsIcESaIcEEaSERKS4_.exit ]
  %.not.i.i.i = icmp eq ptr %37, null
  br i1 %.not.i.i.i, label %_ZNSt6vectorINSt7__cxx1112basic_stringIcSt11char_traitsIcESaIcEEESaIS5_EED2Ev.exit, label %38

38:                                               ; preds = %_ZSt8_DestroyIPNSt7__cxx1112basic_stringIcSt11char_traitsIcESaIcEEES5_EvT_S7_RSaIT0_E.exit.i
  %39 = getelementptr inbounds nuw i8, ptr %3, i64 16
  %40 = load ptr, ptr %39, align 8, !tbaa !189
  %41 = ptrtoint ptr %40 to i64
  %42 = ptrtoint ptr %37 to i64
  %43 = sub i64 %41, %42
  call void @_ZdlPvm(ptr noundef nonnull %37, i64 noundef %43) #29
  br label %_ZNSt6vectorINSt7__cxx1112basic_stringIcSt11char_traitsIcESaIcEEESaIS5_EED2Ev.exit

_ZNSt6vectorINSt7__cxx1112basic_stringIcSt11char_traitsIcESaIcEEESaIS5_EED2Ev.exit: ; preds = %_ZSt8_DestroyIPNSt7__cxx1112basic_stringIcSt11char_traitsIcESaIcEEES5_EvT_S7_RSaIT0_E.exit.i, %38
  call void @llvm.lifetime.end.p0(i64 24, ptr nonnull %3) #27
  ret void

44:                                               ; preds = %20, %13
  %.pn = phi { ptr, i32 } [ %14, %13 ], [ %21, %20 ]
  call void @_ZNSt6vectorINSt7__cxx1112basic_stringIcSt11char_traitsIcESaIcEEESaIS5_EED2Ev(ptr noundef nonnull align 8 dereferenceable(24) %3) #27
  call void @llvm.lifetime.end.p0(i64 24, ptr nonnull %3) #27
  resume { ptr, i32 } %.pn
}